target datalayout = "e-m:e-p270:32:32-p271:32:32-p272:64:64-i64:64-i128:128-f80:128-n8:16:32:64-S128"
target triple = "x86_64-pc-linux-gnu"

@stderr = external global ptr, align 8
@.str = private unnamed_addr constant [4 x i8] c"%s\0A\00", align 1
@.str.1 = private unnamed_addr constant [14 x i8] c"Out of memory\00", align 1

; Function Attrs: nounwind uwtable
define ptr @CORD_from_char_star(ptr noundef %0) #0 {
  %2 = alloca ptr, align 8
  %3 = alloca ptr, align 8
  %4 = alloca ptr, align 8
  %5 = alloca i64, align 8
  %6 = alloca i32, align 4
  store ptr %0, ptr %3, align 8, !tbaa !3
  call void @llvm.lifetime.start.p0(i64 8, ptr %4) #9
  call void @llvm.lifetime.start.p0(i64 8, ptr %5) #9
  %7 = load ptr, ptr %3, align 8, !tbaa !3
  %8 = call i64 @strlen(ptr noundef %7) #12
  store i64 %8, ptr %5, align 8, !tbaa !11
  %9 = load i64, ptr %5, align 8, !tbaa !11
  %10 = icmp eq i64 0, %9
  br i1 %10, label %11, label %12

11:                                               ; preds = %1
  store ptr null, ptr %2, align 8
  store i32 1, ptr %6, align 4
  br label %27

12:                                               ; preds = %1
  %13 = load i64, ptr %5, align 8, !tbaa !11
  %14 = add i64 %13, 1
  %15 = call noalias ptr @GC_malloc_atomic(i64 noundef %14) #10
  store ptr %15, ptr %4, align 8, !tbaa !3
  %16 = load ptr, ptr %4, align 8, !tbaa !3
  %17 = icmp eq ptr null, %16
  br i1 %17, label %18, label %21

18:                                               ; preds = %12
  call void @CORD__call_oom_fn()
  %19 = load ptr, ptr @stderr, align 8, !tbaa !9
  %20 = call i32 (ptr, ptr, ...) @fprintf(ptr noundef %19, ptr noundef @.str, ptr noundef @.str.1) #9
  call void @abort() #11
  unreachable

21:                                               ; preds = %12
  %22 = load ptr, ptr %4, align 8, !tbaa !3
  %23 = load ptr, ptr %3, align 8, !tbaa !3
  %24 = load i64, ptr %5, align 8, !tbaa !11
  %25 = add i64 %24, 1
  call void @llvm.memcpy.p0.p0.i64(ptr align 1 %22, ptr align 1 %23, i64 %25, i1 false)
  %26 = load ptr, ptr %4, align 8, !tbaa !3
  store ptr %26, ptr %2, align 8
  store i32 1, ptr %6, align 4
  br label %27

27:                                               ; preds = %21, %11
  call void @llvm.lifetime.end.p0(i64 8, ptr %5) #9
  call void @llvm.lifetime.end.p0(i64 8, ptr %4) #9
  %28 = load ptr, ptr %2, align 8
  ret ptr %28
}