; Function Attrs: nounwind uwtable
define noalias ptr @CORD_from_char_star(ptr noundef readonly captures(none) %0) local_unnamed_addr #0 {
  %2 = tail call i64 @strlen(ptr noundef nonnull dereferenceable(1) %0) #20
  %3 = icmp eq i64 %2, 0
  br i1 %3, label %12, label %4

4:                                                ; preds = %1
  %5 = add i64 %2, 1
  %6 = tail call noalias ptr @GC_malloc_atomic(i64 noundef %5) #17
  %7 = icmp eq ptr %6, null
  br i1 %7, label %8, label %11

8:                                                ; preds = %4
  tail call void @CORD__call_oom_fn() #16
  %9 = load ptr, ptr @stderr, align 8, !tbaa !3
  %10 = tail call i32 (ptr, ptr, ...) @fprintf(ptr noundef %9, ptr noundef nonnull @.str, ptr noundef nonnull @.str.1) #18
  tail call void @abort() #19
  unreachable

11:                                               ; preds = %4
  tail call void @llvm.memcpy.p0.p0.i64(ptr nonnull align 1 %6, ptr nonnull align 1 %0, i64 %5, i1 false)
  br label %12

12:                                               ; preds = %1, %11
  %.0 = phi ptr [ %6, %11 ], [ null, %1 ]
  ret ptr %.0
}